target datalayout = "e-m:e-p270:32:32-p271:32:32-p272:64:64-i64:64-i128:128-f80:128-n8:16:32:64-S128"
target triple = "x86_64-pc-linux-gnu"

%struct.FT_Service_GlyphDictRec_ = type { ptr, ptr }
%struct.TT_FaceRec_ = type { %struct.FT_FaceRec_, %struct.TTC_HeaderRec_, i64, i16, ptr, %struct.TT_Header_, %struct.TT_HoriHeader_, %struct.TT_MaxProfile_, i8, %struct.TT_VertHeader_, i16, %struct.TT_NameTableRec_, %struct.TT_OS2_, %struct.TT_Postscript_, ptr, i64, ptr, ptr, ptr, ptr, ptr, ptr, ptr, ptr, ptr, ptr, ptr, ptr, %struct.TT_Gasp_, %struct.TT_PCLT_, i64, ptr, %struct.TT_Post_NamesRec_, %struct.FT_Palette_Data_, i16, ptr, i8, %struct.FT_Color_, i64, ptr, i64, ptr, i64, ptr, ptr, %struct.FT_Generic_, ptr, i64, i64, i8, i8, ptr, i32, ptr, i32, i32, ptr, i64, i64, i64, ptr, ptr, i64, i32, i64, ptr, ptr, i64, i32, i32, ptr, ptr, i64, i32, i32, i32, %struct.TT_BDFRec_, i64, i64, i64, i64, ptr, ptr, ptr }
%struct.FT_FaceRec_ = type { i64, i64, i64, i64, i64, ptr, ptr, i32, ptr, i32, ptr, %struct.FT_Generic_, %struct.FT_BBox_, i16, i16, i16, i16, i16, i16, i16, i16, ptr, ptr, ptr, ptr, ptr, ptr, %struct.FT_ListRec_, %struct.FT_Generic_, ptr, ptr }
%struct.FT_BBox_ = type { i64, i64, i64, i64 }
%struct.FT_ListRec_ = type { ptr, ptr }
%struct.TTC_HeaderRec_ = type { i64, i64, i64, ptr }
%struct.TT_Header_ = type { i64, i64, i64, i64, i16, i16, [2 x i64], [2 x i64], i16, i16, i16, i16, i16, i16, i16, i16, i16 }
%struct.TT_HoriHeader_ = type { i64, i16, i16, i16, i16, i16, i16, i16, i16, i16, i16, [4 x i16], i16, i16, ptr, ptr }
%struct.TT_MaxProfile_ = type { i64, i16, i16, i16, i16, i16, i16, i16, i16, i16, i16, i16, i16, i16, i16 }
%struct.TT_VertHeader_ = type { i64, i16, i16, i16, i16, i16, i16, i16, i16, i16, i16, [4 x i16], i16, i16, ptr, ptr }
%struct.TT_NameTableRec_ = type { i16, i32, i32, ptr, i32, ptr, ptr }
%struct.TT_OS2_ = type { i16, i16, i16, i16, i16, i16, i16, i16, i16, i16, i16, i16, i16, i16, i16, i16, [10 x i8], i64, i64, i64, i64, [4 x i8], i16, i16, i16, i16, i16, i16, i16, i16, i64, i64, i16, i16, i16, i16, i16, i16, i16 }
%struct.TT_Postscript_ = type { i64, i64, i16, i16, i64, i64, i64, i64, i64 }
%struct.TT_Gasp_ = type { i16, i16, ptr }
%struct.TT_PCLT_ = type { i64, i64, i16, i16, i16, i16, i16, i16, [16 x i8], [8 x i8], [6 x i8], i8, i8, i8, i8 }
%struct.TT_Post_NamesRec_ = type { i8, i16, i16, ptr, ptr }
%struct.FT_Palette_Data_ = type { i16, ptr, ptr, i16, ptr }
%struct.FT_Color_ = type { i8, i8, i8, i8 }
%struct.FT_Generic_ = type { ptr, ptr }
%struct.TT_BDFRec_ = type { ptr, ptr, ptr, i64, i32, i8 }
%struct.CFF_FontRec_ = type { ptr, ptr, ptr, i64, i32, i32, i8, i8, i8, i32, i8, %struct.CFF_IndexRec_, %struct.CFF_IndexRec_, %struct.CFF_IndexRec_, %struct.CFF_EncodingRec_, %struct.CFF_CharsetRec_, %struct.CFF_IndexRec_, %struct.CFF_IndexRec_, %struct.CFF_IndexRec_, %struct.CFF_IndexRec_, ptr, ptr, i32, ptr, ptr, i64, %struct.CFF_SubFontRec_, i32, [256 x ptr], %struct.CFF_FDSelectRec_, ptr, ptr, ptr, ptr, ptr, ptr, %struct.FT_Generic_, %struct.CFF_VStoreRec_, ptr }
%struct.CFF_EncodingRec_ = type { i32, i64, i32, [256 x i16], [256 x i16] }
%struct.CFF_CharsetRec_ = type { i32, i64, ptr, ptr, i32, i32 }
%struct.CFF_IndexRec_ = type { ptr, i64, i32, i32, i8, i64, i64, ptr, ptr }
%struct.CFF_SubFontRec_ = type { %struct.CFF_FontRecDictRec_, %struct.CFF_PrivateRec_, %struct.CFF_BlendRec_, i32, ptr, ptr, ptr, i32, i32, %struct.CFF_IndexRec_, ptr, i32 }
%struct.CFF_FontRecDictRec_ = type { i32, i32, i32, i32, i32, i32, i8, i64, i64, i64, i32, i32, %struct.FT_Matrix_, i8, i64, %struct.FT_Vector_, i64, %struct.FT_BBox_, i64, i64, i64, i64, i64, i64, i64, i32, i32, i32, i64, i64, i64, i64, i64, i64, i64, i64, i32, i16, i16, i64, i32 }
%struct.FT_Matrix_ = type { i64, i64, i64, i64 }
%struct.FT_Vector_ = type { i64, i64 }
%struct.CFF_PrivateRec_ = type { i8, i8, i8, i8, [14 x i64], [10 x i64], [14 x i64], [10 x i64], i64, i64, i64, i64, i64, i8, i8, [13 x i64], [13 x i64], i8, i64, i32, i32, i64, i64, i64, i64, i64, i32, ptr }
%struct.CFF_BlendRec_ = type { i8, i8, ptr, i32, i32, ptr, i32, ptr }
%struct.CFF_FDSelectRec_ = type { i8, i32, ptr, i32, i32, i32, i8 }
%struct.CFF_VStoreRec_ = type { i32, ptr, i16, i32, ptr }
%struct.FT_Service_PsCMapsRec_ = type { ptr, ptr, ptr, ptr, ptr, ptr, ptr, ptr }
%struct.FT_DriverRec_ = type { %struct.FT_ModuleRec_, ptr, %struct.FT_ListRec_, ptr }
%struct.FT_ModuleRec_ = type { ptr, ptr, ptr }

@.str.1 = private unnamed_addr constant [5 x i8] c"sfnt\00", align 1
@.str.8 = private unnamed_addr constant [11 x i8] c"glyph-dict\00", align 1
@.str.15 = private unnamed_addr constant [17 x i8] c"postscript-cmaps\00", align 1

; Function Attrs: nounwind uwtable
define internal ptr @cff_index_get_string(ptr noundef %0, i32 noundef %1) #0 {
  %3 = alloca ptr, align 8
  %4 = alloca i32, align 4
  store ptr %0, ptr %3, align 8
  store i32 %1, ptr %4, align 4
  %5 = load i32, ptr %4, align 4
  %6 = load ptr, ptr %3, align 8
  %7 = getelementptr inbounds %struct.CFF_FontRec_, ptr %6, i32 0, i32 22
  %8 = load i32, ptr %7, align 8
  %9 = icmp ult i32 %5, %8
  br i1 %9, label %10, label %18

10:                                               ; preds = %2
  %11 = load ptr, ptr %3, align 8
  %12 = getelementptr inbounds %struct.CFF_FontRec_, ptr %11, i32 0, i32 23
  %13 = load ptr, ptr %12, align 8
  %14 = load i32, ptr %4, align 4
  %15 = zext i32 %14 to i64
  %16 = getelementptr inbounds ptr, ptr %13, i64 %15
  %17 = load ptr, ptr %16, align 8
  br label %19

18:                                               ; preds = %2
  br label %19

19:                                               ; preds = %18, %10
  %20 = phi ptr [ %17, %10 ], [ null, %18 ]
  ret ptr %20
}

; Function Attrs: nounwind uwtable
define internal i32 @cff_get_name_index(ptr noundef %0, ptr noundef %1) #0 {
  %3 = alloca i32, align 4
  %4 = alloca ptr, align 8
  %5 = alloca ptr, align 8
  %6 = alloca ptr, align 8
  %7 = alloca ptr, align 8
  %8 = alloca ptr, align 8
  %9 = alloca ptr, align 8
  %10 = alloca ptr, align 8
  %11 = alloca i16, align 2
  %12 = alloca i32, align 4
  %13 = alloca ptr, align 8
  %14 = alloca ptr, align 8
  %15 = alloca ptr, align 8
  %16 = alloca ptr, align 8
  %17 = alloca ptr, align 8
  store ptr %0, ptr %4, align 8
  store ptr %1, ptr %5, align 8
  %18 = load ptr, ptr %4, align 8
  store ptr %18, ptr %6, align 8
  %19 = load ptr, ptr %6, align 8
  %20 = getelementptr inbounds %struct.TT_FaceRec_, ptr %19, i32 0, i32 45
  %21 = getelementptr inbounds %struct.FT_Generic_, ptr %20, i32 0, i32 0
  %22 = load ptr, ptr %21, align 8
  store ptr %22, ptr %7, align 8
  %23 = load ptr, ptr %7, align 8
  %24 = getelementptr inbounds %struct.CFF_FontRec_, ptr %23, i32 0, i32 15
  store ptr %24, ptr %8, align 8
  %25 = load ptr, ptr %7, align 8
  %26 = getelementptr inbounds %struct.CFF_FontRec_, ptr %25, i32 0, i32 6
  %27 = load i8, ptr %26, align 8
  %28 = zext i8 %27 to i32
  %29 = icmp eq i32 %28, 2
  br i1 %29, label %30, label %60

30:                                               ; preds = %2
  %31 = load ptr, ptr %4, align 8
  %32 = getelementptr inbounds %struct.FT_FaceRec_, ptr %31, i32 0, i32 24
  %33 = load ptr, ptr %32, align 8
  %34 = getelementptr inbounds %struct.FT_DriverRec_, ptr %33, i32 0, i32 0
  %35 = getelementptr inbounds %struct.FT_ModuleRec_, ptr %34, i32 0, i32 1
  %36 = load ptr, ptr %35, align 8
  store ptr %36, ptr %13, align 8
  %37 = load ptr, ptr %13, align 8
  %38 = call ptr @FT_Get_Module(ptr noundef %37, ptr noundef @.str.1)
  store ptr %38, ptr %14, align 8
  %39 = load ptr, ptr %14, align 8
  %40 = call ptr @ft_module_get_service(ptr noundef %39, ptr noundef @.str.8, i8 noundef zeroext 0)
  store ptr %40, ptr %15, align 8
  %41 = load ptr, ptr %15, align 8
  %42 = icmp ne ptr %41, null
  br i1 %42, label %43, label %55

43:                                               ; preds = %30
  %44 = load ptr, ptr %15, align 8
  %45 = getelementptr inbounds %struct.FT_Service_GlyphDictRec_, ptr %44, i32 0, i32 1
  %46 = load ptr, ptr %45, align 8
  %47 = icmp ne ptr %46, null
  br i1 %47, label %48, label %55

48:                                               ; preds = %43
  %49 = load ptr, ptr %15, align 8
  %50 = getelementptr inbounds %struct.FT_Service_GlyphDictRec_, ptr %49, i32 0, i32 1
  %51 = load ptr, ptr %50, align 8
  %52 = load ptr, ptr %4, align 8
  %53 = load ptr, ptr %5, align 8
  %54 = call i32 %51(ptr noundef %52, ptr noundef %53)
  store i32 %54, ptr %3, align 4
  br label %119

55:                                               ; preds = %43, %30
  br label %56

56:                                               ; preds = %55
  br label %57

57:                                               ; preds = %56
  br label %58

58:                                               ; preds = %57
  br label %59

59:                                               ; preds = %58
  store i32 0, ptr %3, align 4
  br label %119

60:                                               ; preds = %2
  br label %61

61:                                               ; preds = %60
  %62 = load ptr, ptr %4, align 8
  %63 = getelementptr inbounds %struct.FT_FaceRec_, ptr %62, i32 0, i32 24
  %64 = load ptr, ptr %63, align 8
  store ptr %64, ptr %16, align 8
  %65 = load ptr, ptr %16, align 8
  %66 = call ptr @ft_module_get_service(ptr noundef %65, ptr noundef @.str.15, i8 noundef zeroext 1)
  store ptr %66, ptr %17, align 8
  %67 = load ptr, ptr %17, align 8
  store ptr %67, ptr %9, align 8
  br label %68

68:                                               ; preds = %61
  %69 = load ptr, ptr %9, align 8
  %70 = icmp ne ptr %69, null
  br i1 %70, label %72, label %71

71:                                               ; preds = %68
  store i32 0, ptr %3, align 4
  br label %119

72:                                               ; preds = %68
  store i32 0, ptr %12, align 4
  br label %73

73:                                               ; preds = %115, %72
  %74 = load i32, ptr %12, align 4
  %75 = load ptr, ptr %7, align 8
  %76 = getelementptr inbounds %struct.CFF_FontRec_, ptr %75, i32 0, i32 5
  %77 = load i32, ptr %76, align 4
  %78 = icmp ult i32 %74, %77
  br i1 %78, label %79, label %118

79:                                               ; preds = %73
  %80 = load ptr, ptr %8, align 8
  %81 = getelementptr inbounds %struct.CFF_CharsetRec_, ptr %80, i32 0, i32 2
  %82 = load ptr, ptr %81, align 8
  %83 = load i32, ptr %12, align 4
  %84 = zext i32 %83 to i64
  %85 = getelementptr inbounds i16, ptr %82, i64 %84
  %86 = load i16, ptr %85, align 2
  store i16 %86, ptr %11, align 2
  %87 = load i16, ptr %11, align 2
  %88 = zext i16 %87 to i32
  %89 = icmp sgt i32 %88, 390
  br i1 %89, label %90, label %96

90:                                               ; preds = %79
  %91 = load ptr, ptr %7, align 8
  %92 = load i16, ptr %11, align 2
  %93 = zext i16 %92 to i32
  %94 = sub nsw i32 %93, 391
  %95 = call ptr @cff_index_get_string(ptr noundef %91, i32 noundef %94)
  store ptr %95, ptr %10, align 8
  br label %103

96:                                               ; preds = %79
  %97 = load ptr, ptr %9, align 8
  %98 = getelementptr inbounds %struct.FT_Service_PsCMapsRec_, ptr %97, i32 0, i32 5
  %99 = load ptr, ptr %98, align 8
  %100 = load i16, ptr %11, align 2
  %101 = zext i16 %100 to i32
  %102 = call ptr %99(i32 noundef %101)
  store ptr %102, ptr %10, align 8
  br label %103

103:                                              ; preds = %96, %90
  %104 = load ptr, ptr %10, align 8
  %105 = icmp ne ptr %104, null
  br i1 %105, label %107, label %106

106:                                              ; preds = %103
  br label %115

107:                                              ; preds = %103
  %108 = load ptr, ptr %5, align 8
  %109 = load ptr, ptr %10, align 8
  %110 = call i32 @strcmp(ptr noundef %108, ptr noundef %109) #5
  %111 = icmp ne i32 %110, 0
  br i1 %111, label %114, label %112

112:                                              ; preds = %107
  %113 = load i32, ptr %12, align 4
  store i32 %113, ptr %3, align 4
  br label %119

114:                                              ; preds = %107
  br label %115

115:                                              ; preds = %114, %106
  %116 = load i32, ptr %12, align 4
  %117 = add i32 %116, 1
  store i32 %117, ptr %12, align 4
  br label %73, !llvm.loop !18

118:                                              ; preds = %73
  store i32 0, ptr %3, align 4
  br label %119

119:                                              ; preds = %118, %112, %71, %59, %48
  %120 = load i32, ptr %3, align 4
  ret i32 %120
}