; Function Attrs: nounwind uwtable
define internal i32 @cff_get_name_index(ptr noundef %0, ptr noundef %1) #4 {
  %3 = getelementptr inbounds i8, ptr %0, i64 1168
  %4 = load ptr, ptr %3, align 8
  %5 = getelementptr inbounds i8, ptr %4, i64 40
  %6 = load i8, ptr %5, align 8
  %7 = icmp eq i8 %6, 2
  %8 = getelementptr inbounds i8, ptr %0, i64 176
  %9 = load ptr, ptr %8, align 8
  br i1 %7, label %10, label %20

10:                                               ; preds = %2
  %11 = getelementptr inbounds i8, ptr %9, i64 8
  %12 = load ptr, ptr %11, align 8
  %13 = tail call ptr @FT_Get_Module(ptr noundef %12, ptr noundef nonnull @.str.1) #20
  %14 = tail call ptr @ft_module_get_service(ptr noundef %13, ptr noundef nonnull @.str.8, i8 noundef zeroext 0) #20
  %.not38 = icmp eq ptr %14, null
  br i1 %.not38, label %.loopexit, label %15

15:                                               ; preds = %10
  %16 = getelementptr inbounds i8, ptr %14, i64 8
  %17 = load ptr, ptr %16, align 8
  %.not39 = icmp eq ptr %17, null
  br i1 %.not39, label %.loopexit, label %18

18:                                               ; preds = %15
  %19 = tail call i32 %17(ptr noundef nonnull %0, ptr noundef %1) #20
  br label %.loopexit

20:                                               ; preds = %2
  %21 = tail call ptr @ft_module_get_service(ptr noundef %9, ptr noundef nonnull @.str.15, i8 noundef zeroext 1) #20
  %.not = icmp eq ptr %21, null
  br i1 %.not, label %.loopexit, label %.preheader

.preheader:                                       ; preds = %20
  %22 = getelementptr inbounds i8, ptr %4, i64 36
  %23 = load i32, ptr %22, align 4
  %.not45 = icmp eq i32 %23, 0
  br i1 %.not45, label %.loopexit, label %.lr.ph

.lr.ph:                                           ; preds = %.preheader
  %24 = getelementptr inbounds i8, ptr %4, i64 1312
  %25 = getelementptr inbounds i8, ptr %21, i64 40
  %26 = getelementptr inbounds i8, ptr %4, i64 1608
  %27 = getelementptr inbounds i8, ptr %4, i64 1616
  br label %28

28:                                               ; preds = %.lr.ph, %cff_index_get_string.exit.thread
  %indvars.iv = phi i64 [ 0, %.lr.ph ], [ %indvars.iv.next, %cff_index_get_string.exit.thread ]
  %29 = load ptr, ptr %24, align 8
  %30 = getelementptr inbounds i16, ptr %29, i64 %indvars.iv
  %31 = load i16, ptr %30, align 2
  %32 = zext i16 %31 to i32
  %33 = icmp ugt i16 %31, 390
  br i1 %33, label %34, label %43

34:                                               ; preds = %28
  %35 = add nsw i32 %32, -391
  %36 = load i32, ptr %26, align 8
  %37 = icmp ugt i32 %36, %35
  br i1 %37, label %38, label %cff_index_get_string.exit.thread

38:                                               ; preds = %34
  %39 = load ptr, ptr %27, align 8
  %40 = zext i32 %35 to i64
  %41 = getelementptr inbounds ptr, ptr %39, i64 %40
  %42 = load ptr, ptr %41, align 8
  br label %cff_index_get_string.exit

43:                                               ; preds = %28
  %44 = load ptr, ptr %25, align 8
  %45 = tail call ptr %44(i32 noundef %32) #20
  br label %cff_index_get_string.exit

cff_index_get_string.exit:                        ; preds = %38, %43
  %.030 = phi ptr [ %45, %43 ], [ %42, %38 ]
  %.not36 = icmp eq ptr %.030, null
  br i1 %.not36, label %cff_index_get_string.exit.thread, label %46

46:                                               ; preds = %cff_index_get_string.exit
  %47 = tail call i32 @strcmp(ptr noundef nonnull dereferenceable(1) %1, ptr noundef nonnull dereferenceable(1) %.030) #21
  %.not37 = icmp eq i32 %47, 0
  br i1 %.not37, label %.loopexit.loopexit.split.loop.exit47, label %cff_index_get_string.exit.thread

cff_index_get_string.exit.thread:                 ; preds = %34, %46, %cff_index_get_string.exit
  %indvars.iv.next = add nuw nsw i64 %indvars.iv, 1
  %48 = load i32, ptr %22, align 4
  %49 = zext i32 %48 to i64
  %50 = icmp ult i64 %indvars.iv.next, %49
  br i1 %50, label %28, label %.loopexit, !llvm.loop !21

.loopexit.loopexit.split.loop.exit47:             ; preds = %46
  %51 = trunc nuw i64 %indvars.iv to i32
  br label %.loopexit

.loopexit:                                        ; preds = %cff_index_get_string.exit.thread, %.loopexit.loopexit.split.loop.exit47, %.preheader, %20, %10, %15, %18
  %.0 = phi i32 [ %19, %18 ], [ 0, %15 ], [ 0, %10 ], [ 0, %20 ], [ 0, %.preheader ], [ %51, %.loopexit.loopexit.split.loop.exit47 ], [ 0, %cff_index_get_string.exit.thread ]
  ret i32 %.0
}